target datalayout = "e-m:e-p270:32:32-p271:32:32-p272:64:64-i64:64-i128:128-f80:128-n8:16:32:64-S128"
target triple = "x86_64-unknown-linux-gnu"

%"class.zmq::reaper_t" = type <{ %"class.zmq::object_t.base", [4 x i8], %"struct.zmq::i_poll_events", %"class.zmq::mailbox_t", ptr, ptr, i32, i8, [3 x i8], i32, [4 x i8] }>
%"class.zmq::object_t.base" = type <{ ptr, ptr, i32 }>
%"struct.zmq::i_poll_events" = type { ptr }
%"class.zmq::mailbox_t" = type <{ %"class.zmq::i_mailbox", %"class.zmq::ypipe_t", %"class.zmq::signaler_t", [4 x i8], %"class.zmq::mutex_t", i8, [7 x i8] }>
%"class.zmq::i_mailbox" = type { ptr }
%"class.zmq::ypipe_t" = type { %"class.zmq::ypipe_base_t", %"class.zmq::yqueue_t", ptr, ptr, ptr, %"class.zmq::atomic_ptr_t.0" }
%"class.zmq::ypipe_base_t" = type { ptr }
%"class.zmq::yqueue_t" = type { ptr, i32, ptr, i32, ptr, i32, %"class.zmq::atomic_ptr_t" }
%"class.zmq::atomic_ptr_t" = type { %"struct.std::atomic" }
%"struct.std::atomic" = type { %"struct.std::__atomic_base" }
%"struct.std::__atomic_base" = type { ptr }
%"class.zmq::atomic_ptr_t.0" = type { %"struct.std::atomic.1" }
%"struct.std::atomic.1" = type { %"struct.std::__atomic_base.2" }
%"struct.std::__atomic_base.2" = type { ptr }
%"class.zmq::signaler_t" = type { i32, i32, i32 }
%"class.zmq::mutex_t" = type <{ %union.pthread_mutex_t, %union.pthread_mutexattr_t, [4 x i8] }>
%union.pthread_mutex_t = type { %struct.__pthread_mutex_s }
%struct.__pthread_mutex_s = type { i32, i32, i32, i32, i32, i16, i16, %struct.__pthread_internal_list }
%struct.__pthread_internal_list = type { ptr, ptr }
%union.pthread_mutexattr_t = type { i32 }
%"struct.zmq::command_t" = type { ptr, i32, %"union.zmq::command_t::args_t", [24 x i8] }
%"union.zmq::command_t::args_t" = type { %struct.anon.66 }
%struct.anon.66 = type { i64, ptr, ptr }

@stderr = external global ptr, align 8
@.str.1 = private unnamed_addr constant [106 x i8] c"generated/home/dtcxzyw/WorkSpace/Projects/compilers/llvm-opt-benchmark/bench/libzmq/libzmq/src/reaper.cpp\00", align 1
@.str.6 = private unnamed_addr constant [12 x i8] c"%s (%s:%d)\0A\00", align 1

; Function Attrs: mustprogress uwtable
define void @_ZN3zmq8reaper_t8in_eventEv(ptr noundef nonnull align 8 dereferenceable(240) %this) unnamed_addr #0 align 2 {
entry:
  %this.addr = alloca ptr, align 8
  %cmd = alloca %"struct.zmq::command_t", align 64
  %rc = alloca i32, align 4
  %errstr = alloca ptr, align 8
  store ptr %this, ptr %this.addr, align 8
  %this1 = load ptr, ptr %this.addr, align 8
  br label %while.body

while.body:                                       ; preds = %do.end, %if.then6, %entry
  %_pid = getelementptr inbounds %"class.zmq::reaper_t", ptr %this1, i32 0, i32 9
  %0 = load i32, ptr %_pid, align 8
  %call = call i32 @getpid() #10
  %cmp = icmp ne i32 %0, %call
  br i1 %cmp, label %if.then, label %if.end

if.then:                                          ; preds = %while.body
  br label %while.end

if.end:                                           ; preds = %while.body
  %_mailbox = getelementptr inbounds %"class.zmq::reaper_t", ptr %this1, i32 0, i32 3
  %call2 = call noundef i32 @_ZN3zmq9mailbox_t4recvEPNS_9command_tEi(ptr noundef nonnull align 8 dereferenceable(176) %_mailbox, ptr noundef %cmd, i32 noundef 0)
  store i32 %call2, ptr %rc, align 4
  %1 = load i32, ptr %rc, align 4
  %cmp3 = icmp ne i32 %1, 0
  br i1 %cmp3, label %land.lhs.true, label %if.end7

land.lhs.true:                                    ; preds = %if.end
  %call4 = call ptr @__errno_location() #13
  %2 = load i32, ptr %call4, align 4
  %cmp5 = icmp eq i32 %2, 4
  br i1 %cmp5, label %if.then6, label %if.end7

if.then6:                                         ; preds = %land.lhs.true
  br label %while.body, !llvm.loop !4

if.end7:                                          ; preds = %land.lhs.true, %if.end
  %3 = load i32, ptr %rc, align 4
  %cmp8 = icmp ne i32 %3, 0
  br i1 %cmp8, label %land.lhs.true9, label %if.end13

land.lhs.true9:                                   ; preds = %if.end7
  %call10 = call ptr @__errno_location() #13
  %4 = load i32, ptr %call10, align 4
  %cmp11 = icmp eq i32 %4, 11
  br i1 %cmp11, label %if.then12, label %if.end13

if.then12:                                        ; preds = %land.lhs.true9
  br label %while.end

if.end13:                                         ; preds = %land.lhs.true9, %if.end7
  br label %do.body

do.body:                                          ; preds = %if.end13
  %5 = load i32, ptr %rc, align 4
  %cmp14 = icmp eq i32 %5, 0
  %lnot = xor i1 %cmp14, true
  br i1 %lnot, label %if.then15, label %if.end20

if.then15:                                        ; preds = %do.body
  %call16 = call ptr @__errno_location() #13
  %6 = load i32, ptr %call16, align 4
  %call17 = call ptr @strerror(i32 noundef %6) #10
  store ptr %call17, ptr %errstr, align 8
  %7 = load ptr, ptr @stderr, align 8
  %8 = load ptr, ptr %errstr, align 8
  %call18 = call i32 (ptr, ptr, ...) @fprintf(ptr noundef %7, ptr noundef @.str.6, ptr noundef %8, ptr noundef @.str.1, i32 noundef 74)
  %9 = load ptr, ptr @stderr, align 8
  %call19 = call i32 @fflush(ptr noundef %9)
  %10 = load ptr, ptr %errstr, align 8
  call void @_ZN3zmq9zmq_abortEPKc(ptr noundef %10)
  br label %if.end20

if.end20:                                         ; preds = %if.then15, %do.body
  br label %do.end

do.end:                                           ; preds = %if.end20
  %destination = getelementptr inbounds %"struct.zmq::command_t", ptr %cmd, i32 0, i32 0
  %11 = load ptr, ptr %destination, align 64
  call void @_ZN3zmq8object_t15process_commandERKNS_9command_tE(ptr noundef nonnull align 8 dereferenceable(20) %11, ptr noundef nonnull align 64 dereferenceable(64) %cmd)
  br label %while.body, !llvm.loop !4

while.end:                                        ; preds = %if.then12, %if.then
  ret void
}