; Function Attrs: mustprogress uwtable
define void @_ZN3zmq8reaper_t8in_eventEv(ptr noundef nonnull align 8 dereferenceable(240) %this) unnamed_addr #0 align 2 {
entry:
  %cmd = alloca %"struct.zmq::command_t", align 64
  %_pid = getelementptr inbounds i8, ptr %this, i64 232
  %0 = load i32, ptr %_pid, align 8
  %call5 = tail call i32 @getpid() #15
  %cmp.not6 = icmp eq i32 %0, %call5
  br i1 %cmp.not6, label %if.end.lr.ph, label %while.end

if.end.lr.ph:                                     ; preds = %entry
  %_mailbox = getelementptr inbounds i8, ptr %this, i64 32
  br label %if.end

if.end:                                           ; preds = %if.end.lr.ph, %while.body.backedge
  %call2 = call noundef i32 @_ZN3zmq9mailbox_t4recvEPNS_9command_tEi(ptr noundef nonnull align 8 dereferenceable(176) %_mailbox, ptr noundef nonnull %cmd, i32 noundef 0)
  %cmp3.not = icmp eq i32 %call2, 0
  br i1 %cmp3.not, label %do.end, label %land.lhs.true

land.lhs.true:                                    ; preds = %if.end
  %call4 = tail call ptr @__errno_location() #16
  %1 = load i32, ptr %call4, align 4
  switch i32 %1, label %if.then15 [
    i32 4, label %while.body.backedge
    i32 11, label %while.end
  ]

if.then15:                                        ; preds = %land.lhs.true
  %call17 = call ptr @strerror(i32 noundef %1) #15
  %2 = load ptr, ptr @stderr, align 8
  %call18 = call i32 (ptr, ptr, ...) @fprintf(ptr noundef %2, ptr noundef nonnull @.str.6, ptr noundef %call17, ptr noundef nonnull @.str.1, i32 noundef 74) #13
  %3 = load ptr, ptr @stderr, align 8
  %call19 = call i32 @fflush(ptr noundef %3)
  call void @_ZN3zmq9zmq_abortEPKc(ptr noundef %call17)
  br label %do.end

do.end:                                           ; preds = %if.end, %if.then15
  %4 = load ptr, ptr %cmd, align 64
  call void @_ZN3zmq8object_t15process_commandERKNS_9command_tE(ptr noundef nonnull align 8 dereferenceable(20) %4, ptr noundef nonnull align 64 dereferenceable(64) %cmd)
  br label %while.body.backedge

while.body.backedge:                              ; preds = %do.end, %land.lhs.true
  %5 = load i32, ptr %_pid, align 8
  %call = call i32 @getpid() #15
  %cmp.not = icmp eq i32 %5, %call
  br i1 %cmp.not, label %if.end, label %while.end, !llvm.loop !4

while.end:                                        ; preds = %while.body.backedge, %land.lhs.true, %entry
  ret void
}